target datalayout = "e-m:e-p270:32:32-p271:32:32-p272:64:64-i64:64-i128:128-f80:128-n8:16:32:64-S128"
target triple = "x86_64-pc-linux-gnu"

; Function Attrs: mustprogress uwtable
define noundef zeroext i1 @_ZNK22AmbientOcclusionPlugin17requiresGLContextEPK7QAction(ptr noundef nonnull align 8 dereferenceable(185) %0, ptr noundef %1) unnamed_addr #5 align 2 {
  %3 = alloca i1, align 1
  %4 = alloca ptr, align 8
  %5 = alloca ptr, align 8
  store ptr %0, ptr %4, align 8
  store ptr %1, ptr %5, align 8
  %6 = load ptr, ptr %4, align 8
  %7 = getelementptr inbounds i8, ptr %6, i64 16
  %8 = load ptr, ptr %5, align 8
  %9 = load ptr, ptr %7, align 8
  %10 = getelementptr inbounds ptr, ptr %9, i64 18
  %11 = load ptr, ptr %10, align 8
  %12 = call noundef i32 %11(ptr noundef nonnull align 8 dereferenceable(64) %7, ptr noundef %8)
  switch i32 %12, label %14 [
    i32 0, label %13
  ]

13:                                               ; preds = %2
  store i1 true, ptr %3, align 1
  br label %16

14:                                               ; preds = %2
  br label %15

15:                                               ; preds = %14
  store i1 false, ptr %3, align 1
  br label %16

16:                                               ; preds = %15, %13
  %17 = load i1, ptr %3, align 1
  ret i1 %17
}